target datalayout = "e-m:e-p270:32:32-p271:32:32-p272:64:64-i64:64-i128:128-f80:128-n8:16:32:64-S128"
target triple = "x86_64-pc-linux-gnu"

%struct.b2Vec2 = type { float, float }
%struct.b2JointArray = type { ptr, i32, i32 }
%struct.b2JointSimArray = type { ptr, i32, i32 }
%struct.b2JointId = type { i32, i16, i16 }
%struct.b2World = type { %struct.b2ArenaAllocator, %struct.b2BroadPhase, %struct.b2ConstraintGraph, %struct.b2IdPool, %struct.b2BodyArray, %struct.b2IdPool, %struct.b2SolverSetArray, %struct.b2IdPool, %struct.b2JointArray, %struct.b2IdPool, %struct.b2ContactArray, %struct.b2IdPool, %struct.b2IslandArray, %struct.b2IdPool, %struct.b2IdPool, %struct.b2ShapeArray, %struct.b2ChainShapeArray, %struct.b2SensorArray, %struct.b2TaskContextArray, %struct.b2SensorTaskContextArray, %struct.b2BodyMoveEventArray, %struct.b2SensorBeginTouchEventArray, %struct.b2ContactBeginTouchEventArray, [2 x %struct.b2SensorEndTouchEventArray], [2 x %struct.b2ContactEndTouchEventArray], i32, %struct.b2ContactHitEventArray, %struct.b2BitSet, %struct.b2BitSet, %struct.b2BitSet, i64, i32, %struct.b2Vec2, float, float, float, float, float, float, float, float, ptr, ptr, i16, %struct.b2Profile, ptr, ptr, ptr, ptr, i32, ptr, ptr, ptr, ptr, ptr, float, i32, i32, i16, i8, i8, i8, i8, i8, i8 }
%struct.b2ArenaAllocator = type { ptr, i32, i32, i32, i32, %struct.b2ArenaEntryArray }
%struct.b2ArenaEntryArray = type { ptr, i32, i32 }
%struct.b2BroadPhase = type { [3 x %struct.b2DynamicTree], i32, %struct.b2HashSet, %struct.b2IntArray, ptr, ptr, i32, %struct.b2AtomicInt, %struct.b2HashSet }
%struct.b2DynamicTree = type { ptr, i32, i32, i32, i32, i32, ptr, ptr, ptr, ptr, i32 }
%struct.b2IntArray = type { ptr, i32, i32 }
%struct.b2AtomicInt = type { i32 }
%struct.b2HashSet = type { ptr, i32, i32 }
%struct.b2ConstraintGraph = type { [12 x %struct.b2GraphColor] }
%struct.b2GraphColor = type { %struct.b2BitSet, %struct.b2ContactSimArray, %struct.b2JointSimArray, %union.anon }
%struct.b2ContactSimArray = type { ptr, i32, i32 }
%union.anon = type { ptr }
%struct.b2BodyArray = type { ptr, i32, i32 }
%struct.b2SolverSetArray = type { ptr, i32, i32 }
%struct.b2ContactArray = type { ptr, i32, i32 }
%struct.b2IslandArray = type { ptr, i32, i32 }
%struct.b2IdPool = type { %struct.b2IntArray, i32 }
%struct.b2ShapeArray = type { ptr, i32, i32 }
%struct.b2ChainShapeArray = type { ptr, i32, i32 }
%struct.b2SensorArray = type { ptr, i32, i32 }
%struct.b2TaskContextArray = type { ptr, i32, i32 }
%struct.b2SensorTaskContextArray = type { ptr, i32, i32 }
%struct.b2BodyMoveEventArray = type { ptr, i32, i32 }
%struct.b2SensorBeginTouchEventArray = type { ptr, i32, i32 }
%struct.b2ContactBeginTouchEventArray = type { ptr, i32, i32 }
%struct.b2SensorEndTouchEventArray = type { ptr, i32, i32 }
%struct.b2ContactEndTouchEventArray = type { ptr, i32, i32 }
%struct.b2ContactHitEventArray = type { ptr, i32, i32 }
%struct.b2BitSet = type { ptr, i32, i32 }
%struct.b2Profile = type { float, float, float, float, float, float, float, float, float, float, float, float, float, float, float, float, float, float, float, float, float, float }
%struct.b2WorldId = type { i16, i16 }

; Function Attrs: nounwind uwtable
define i32 @b2Joint_GetWorld(i64 %0) #0 {
  %2 = alloca %struct.b2WorldId, align 2
  %3 = alloca %struct.b2JointId, align 4
  %4 = alloca ptr, align 8
  store i64 %0, ptr %3, align 4
  call void @llvm.lifetime.start.p0(i64 8, ptr %4) #9
  %5 = getelementptr inbounds nuw %struct.b2JointId, ptr %3, i32 0, i32 1
  %6 = load i16, ptr %5, align 4, !tbaa !75
  %7 = zext i16 %6 to i32
  %8 = call ptr @b2GetWorld(i32 noundef %7)
  store ptr %8, ptr %4, align 8, !tbaa !60
  %9 = getelementptr inbounds nuw %struct.b2WorldId, ptr %2, i32 0, i32 0
  %10 = getelementptr inbounds nuw %struct.b2JointId, ptr %3, i32 0, i32 1
  %11 = load i16, ptr %10, align 4, !tbaa !75
  %12 = zext i16 %11 to i32
  %13 = add nsw i32 %12, 1
  %14 = trunc i32 %13 to i16
  store i16 %14, ptr %9, align 2, !tbaa !262
  %15 = getelementptr inbounds nuw %struct.b2WorldId, ptr %2, i32 0, i32 1
  %16 = load ptr, ptr %4, align 8, !tbaa !60
  %17 = getelementptr inbounds nuw %struct.b2World, ptr %16, i32 0, i32 43
  %18 = load i16, ptr %17, align 8, !tbaa !264
  store i16 %18, ptr %15, align 2, !tbaa !265
  call void @llvm.lifetime.end.p0(i64 8, ptr %4) #9
  %19 = load i32, ptr %2, align 2
  ret i32 %19
}